; Function Attrs: mustprogress uwtable
define hidden noundef ptr @_Z17mk_max_bv_sharingR11ast_managerRK10params_refR20dependent_expr_state(ptr noundef nonnull align 8 dereferenceable(976) %0, ptr noundef nonnull readnone align 8 captures(none) dereferenceable(8) %1, ptr noundef nonnull align 8 dereferenceable(160) %2) local_unnamed_addr #3 personality ptr @__gxx_personality_v0 {
  %4 = tail call noalias noundef ptr @_ZN6memory8allocateEm(i64 noundef 712)
  %5 = getelementptr inbounds nuw i8, ptr %4, i64 8
  store ptr %0, ptr %5, align 8, !tbaa !3
  %6 = getelementptr inbounds nuw i8, ptr %4, i64 16
  store ptr %2, ptr %6, align 8, !tbaa !8
  %7 = getelementptr inbounds nuw i8, ptr %4, i64 24
  %8 = getelementptr inbounds nuw i8, ptr %2, i64 104
  store ptr %8, ptr %7, align 8, !tbaa !10
  store ptr getelementptr inbounds nuw inrange(-16, 88) (i8, ptr @_ZTV14max_bv_sharing, i64 16), ptr %4, align 8, !tbaa !12
  %9 = getelementptr inbounds nuw i8, ptr %4, i64 32
  store ptr getelementptr inbounds nuw inrange(-16, 16) (i8, ptr @_ZTV22maximize_bv_sharing_rw, i64 16), ptr %9, align 8, !tbaa !12
  %10 = getelementptr inbounds nuw i8, ptr %0, i64 712
  %11 = load i32, ptr %10, align 8, !tbaa !14
  %12 = icmp ne i32 %11, 0
  %13 = getelementptr inbounds nuw i8, ptr %4, i64 568
  tail call void @_ZN12rewriter_tplI19maximize_bv_sharingEC2ER11ast_managerbRS0_(ptr noundef nonnull align 8 dereferenceable(672) %9, ptr noundef nonnull align 8 dereferenceable(976) %0, i1 noundef zeroext %12, ptr noundef nonnull align 8 dereferenceable(136) %13)
  store ptr getelementptr inbounds nuw inrange(-16, 16) (i8, ptr @_ZTV22maximize_bv_sharing_rw, i64 16), ptr %9, align 8, !tbaa !12
  invoke void @_ZN19maximize_bv_sharingC1ER11ast_manager(ptr noundef nonnull align 8 dereferenceable(136) %13, ptr noundef nonnull align 8 dereferenceable(976) %0)
          to label %_ZN14max_bv_sharingC2ER11ast_managerRK10params_refR20dependent_expr_state.exit unwind label %.body.i

.body.i:                                          ; preds = %3
  %14 = landingpad { ptr, i32 }
          cleanup
  tail call void @_ZN12rewriter_tplI19maximize_bv_sharingED2Ev(ptr noundef nonnull align 8 dereferenceable(672) %9) #18
  resume { ptr, i32 } %14

_ZN14max_bv_sharingC2ER11ast_managerRK10params_refR20dependent_expr_state.exit: ; preds = %3
  %15 = getelementptr inbounds nuw i8, ptr %4, i64 704
  store i32 0, ptr %15, align 8, !tbaa !82
  ret ptr %4
}